target datalayout = "e-m:e-p270:32:32-p271:32:32-p272:64:64-i64:64-i128:128-f80:128-n8:16:32:64-S128"
target triple = "x86_64-unknown-linux-gnu"

%struct.QEMUSnapshotInfo = type { [128 x i8], [256 x i8], i64, i32, i32, i64, i64 }

@.str.7 = private unnamed_addr constant [26 x i8] c"%-10s%-17s%8s%20s%13s%11s\00", align 1
@.str.8 = private unnamed_addr constant [3 x i8] c"ID\00", align 1
@.str.9 = private unnamed_addr constant [4 x i8] c"TAG\00", align 1
@.str.10 = private unnamed_addr constant [8 x i8] c"VM SIZE\00", align 1
@.str.11 = private unnamed_addr constant [5 x i8] c"DATE\00", align 1
@.str.12 = private unnamed_addr constant [9 x i8] c"VM CLOCK\00", align 1
@.str.13 = private unnamed_addr constant [7 x i8] c"ICOUNT\00", align 1
@.str.14 = private unnamed_addr constant [18 x i8] c"%Y-%m-%d %H:%M:%S\00", align 1
@.str.15 = private unnamed_addr constant [20 x i8] c"%02d:%02d:%02d.%03d\00", align 1
@.str.16 = private unnamed_addr constant [4 x i8] c"%ld\00", align 1
@.str.17 = private unnamed_addr constant [27 x i8] c"%-9s %-16s %8s%20s%13s%11s\00", align 1

; Function Attrs: nounwind sspstrong uwtable
define internal void @glib_autoptr_clear_GDateTime(ptr noundef %_ptr) #0 {
entry:
  %_ptr.addr = alloca ptr, align 8
  store ptr %_ptr, ptr %_ptr.addr, align 8
  %0 = load ptr, ptr %_ptr.addr, align 8
  %tobool = icmp ne ptr %0, null
  br i1 %tobool, label %if.then, label %if.end

if.then:                                          ; preds = %entry
  %1 = load ptr, ptr %_ptr.addr, align 8
  call void @g_date_time_unref(ptr noundef %1)
  br label %if.end

if.end:                                           ; preds = %if.then, %entry
  ret void
}

; Function Attrs: nounwind sspstrong uwtable
define internal void @glib_autoptr_cleanup_GDateTime(ptr noundef %_ptr) #0 {
entry:
  %_ptr.addr = alloca ptr, align 8
  store ptr %_ptr, ptr %_ptr.addr, align 8
  %0 = load ptr, ptr %_ptr.addr, align 8
  %1 = load ptr, ptr %0, align 8
  call void @glib_autoptr_clear_GDateTime(ptr noundef %1)
  ret void
}

; Function Attrs: nounwind sspstrong uwtable
define internal void @g_autoptr_cleanup_generic_gfree(ptr noundef %p) #0 {
entry:
  %p.addr = alloca ptr, align 8
  %pp = alloca ptr, align 8
  store ptr %p, ptr %p.addr, align 8
  %0 = load ptr, ptr %p.addr, align 8
  store ptr %0, ptr %pp, align 8
  %1 = load ptr, ptr %pp, align 8
  %2 = load ptr, ptr %1, align 8
  call void @g_free(ptr noundef %2)
  ret void
}

; Function Attrs: nounwind sspstrong uwtable
define dso_local void @bdrv_snapshot_dump(ptr noundef %sn) #0 {
entry:
  %sn.addr = alloca ptr, align 8
  %clock_buf = alloca [128 x i8], align 16
  %icount_buf = alloca [128 x i8], align 16
  %secs = alloca i64, align 8
  %sizing = alloca ptr, align 8
  %date = alloca ptr, align 8
  %date_buf = alloca ptr, align 8
  store ptr %sn, ptr %sn.addr, align 8
  call void @llvm.memset.p0.i64(ptr align 16 %icount_buf, i8 0, i64 128, i1 false)
  store ptr null, ptr %sizing, align 8
  %0 = load ptr, ptr %sn.addr, align 8
  %tobool = icmp ne ptr %0, null
  br i1 %tobool, label %if.else, label %if.then

if.then:                                          ; preds = %entry
  %call = call i32 (ptr, ...) @qemu_printf(ptr noundef @.str.7, ptr noundef @.str.8, ptr noundef @.str.9, ptr noundef @.str.10, ptr noundef @.str.11, ptr noundef @.str.12, ptr noundef @.str.13)
  br label %if.end25

if.else:                                          ; preds = %entry
  %1 = load ptr, ptr %sn.addr, align 8
  %date_sec = getelementptr inbounds %struct.QEMUSnapshotInfo, ptr %1, i32 0, i32 3
  %2 = load i32, ptr %date_sec, align 8
  %conv = zext i32 %2 to i64
  %call1 = call ptr @g_date_time_new_from_unix_local(i64 noundef %conv)
  store ptr %call1, ptr %date, align 8
  %3 = load ptr, ptr %date, align 8
  %call2 = call noalias ptr @g_date_time_format(ptr noundef %3, ptr noundef @.str.14)
  store ptr %call2, ptr %date_buf, align 8
  %4 = load ptr, ptr %sn.addr, align 8
  %vm_clock_nsec = getelementptr inbounds %struct.QEMUSnapshotInfo, ptr %4, i32 0, i32 5
  %5 = load i64, ptr %vm_clock_nsec, align 8
  %div = udiv i64 %5, 1000000000
  store i64 %div, ptr %secs, align 8
  %arraydecay = getelementptr inbounds [128 x i8], ptr %clock_buf, i64 0, i64 0
  %6 = load i64, ptr %secs, align 8
  %div3 = sdiv i64 %6, 3600
  %conv4 = trunc i64 %div3 to i32
  %7 = load i64, ptr %secs, align 8
  %div5 = sdiv i64 %7, 60
  %rem = srem i64 %div5, 60
  %conv6 = trunc i64 %rem to i32
  %8 = load i64, ptr %secs, align 8
  %rem7 = srem i64 %8, 60
  %conv8 = trunc i64 %rem7 to i32
  %9 = load ptr, ptr %sn.addr, align 8
  %vm_clock_nsec9 = getelementptr inbounds %struct.QEMUSnapshotInfo, ptr %9, i32 0, i32 5
  %10 = load i64, ptr %vm_clock_nsec9, align 8
  %div10 = udiv i64 %10, 1000000
  %rem11 = urem i64 %div10, 1000
  %conv12 = trunc i64 %rem11 to i32
  %call13 = call i32 (ptr, i64, ptr, ...) @snprintf(ptr noundef %arraydecay, i64 noundef 128, ptr noundef @.str.15, i32 noundef %conv4, i32 noundef %conv6, i32 noundef %conv8, i32 noundef %conv12) #12
  %11 = load ptr, ptr %sn.addr, align 8
  %vm_state_size = getelementptr inbounds %struct.QEMUSnapshotInfo, ptr %11, i32 0, i32 2
  %12 = load i64, ptr %vm_state_size, align 8
  %call14 = call ptr @size_to_str(i64 noundef %12)
  store ptr %call14, ptr %sizing, align 8
  %13 = load ptr, ptr %sn.addr, align 8
  %icount = getelementptr inbounds %struct.QEMUSnapshotInfo, ptr %13, i32 0, i32 6
  %14 = load i64, ptr %icount, align 8
  %cmp = icmp ne i64 %14, -1
  br i1 %cmp, label %if.then16, label %if.end

if.then16:                                        ; preds = %if.else
  %arraydecay17 = getelementptr inbounds [128 x i8], ptr %icount_buf, i64 0, i64 0
  %15 = load ptr, ptr %sn.addr, align 8
  %icount18 = getelementptr inbounds %struct.QEMUSnapshotInfo, ptr %15, i32 0, i32 6
  %16 = load i64, ptr %icount18, align 8
  %call19 = call i32 (ptr, i64, ptr, ...) @snprintf(ptr noundef %arraydecay17, i64 noundef 128, ptr noundef @.str.16, i64 noundef %16) #12
  br label %if.end

if.end:                                           ; preds = %if.then16, %if.else
  %17 = load ptr, ptr %sn.addr, align 8
  %id_str = getelementptr inbounds %struct.QEMUSnapshotInfo, ptr %17, i32 0, i32 0
  %arraydecay20 = getelementptr inbounds [128 x i8], ptr %id_str, i64 0, i64 0
  %18 = load ptr, ptr %sn.addr, align 8
  %name = getelementptr inbounds %struct.QEMUSnapshotInfo, ptr %18, i32 0, i32 1
  %arraydecay21 = getelementptr inbounds [256 x i8], ptr %name, i64 0, i64 0
  %19 = load ptr, ptr %sizing, align 8
  %20 = load ptr, ptr %date_buf, align 8
  %arraydecay22 = getelementptr inbounds [128 x i8], ptr %clock_buf, i64 0, i64 0
  %arraydecay23 = getelementptr inbounds [128 x i8], ptr %icount_buf, i64 0, i64 0
  %call24 = call i32 (ptr, ...) @qemu_printf(ptr noundef @.str.17, ptr noundef %arraydecay20, ptr noundef %arraydecay21, ptr noundef %19, ptr noundef %20, ptr noundef %arraydecay22, ptr noundef %arraydecay23)
  call void @g_autoptr_cleanup_generic_gfree(ptr noundef %date_buf)
  call void @glib_autoptr_cleanup_GDateTime(ptr noundef %date)
  br label %if.end25

if.end25:                                         ; preds = %if.end, %if.then
  %21 = load ptr, ptr %sizing, align 8
  call void @g_free(ptr noundef %21)
  ret void
}