; Function Attrs: nounwind sspstrong uwtable
define dso_local void @bdrv_snapshot_dump(ptr noundef %sn) local_unnamed_addr #0 {
entry:
  %clock_buf = alloca [128 x i8], align 16
  %icount_buf = alloca [128 x i8], align 16
  call void @llvm.memset.p0.i64(ptr noundef nonnull align 16 dereferenceable(128) %icount_buf, i8 0, i64 128, i1 false)
  %tobool.not = icmp eq ptr %sn, null
  br i1 %tobool.not, label %if.then, label %if.else

if.then:                                          ; preds = %entry
  %call = tail call i32 (ptr, ...) @qemu_printf(ptr noundef nonnull @.str.7, ptr noundef nonnull @.str.8, ptr noundef nonnull @.str.9, ptr noundef nonnull @.str.10, ptr noundef nonnull @.str.11, ptr noundef nonnull @.str.12, ptr noundef nonnull @.str.13) #10
  br label %if.end25

if.else:                                          ; preds = %entry
  %date_sec = getelementptr inbounds nuw i8, ptr %sn, i64 392
  %0 = load i32, ptr %date_sec, align 8
  %conv = zext i32 %0 to i64
  %call1 = tail call ptr @g_date_time_new_from_unix_local(i64 noundef %conv) #10
  %call2 = tail call noalias ptr @g_date_time_format(ptr noundef %call1, ptr noundef nonnull @.str.14) #10
  %vm_clock_nsec = getelementptr inbounds nuw i8, ptr %sn, i64 400
  %1 = load i64, ptr %vm_clock_nsec, align 8
  %div = udiv i64 %1, 1000000000
  %div3 = udiv i64 %1, 3600000000000
  %conv4 = trunc nuw nsw i64 %div3 to i32
  %div5 = udiv i64 %1, 60000000000
  %rem.lhs.trunc = trunc nuw nsw i64 %div5 to i32
  %rem12 = urem i32 %rem.lhs.trunc, 60
  %rem7 = urem i64 %div, 60
  %conv8 = trunc nuw nsw i64 %rem7 to i32
  %div10 = udiv i64 %1, 1000000
  %rem11 = urem i64 %div10, 1000
  %conv12 = trunc nuw nsw i64 %rem11 to i32
  %call13 = call i32 (ptr, i64, ptr, ...) @snprintf(ptr noundef nonnull dereferenceable(1) %clock_buf, i64 noundef 128, ptr noundef nonnull @.str.15, i32 noundef %conv4, i32 noundef %rem12, i32 noundef %conv8, i32 noundef %conv12) #10
  %vm_state_size = getelementptr inbounds nuw i8, ptr %sn, i64 384
  %2 = load i64, ptr %vm_state_size, align 8
  %call14 = tail call ptr @size_to_str(i64 noundef %2) #10
  %icount = getelementptr inbounds nuw i8, ptr %sn, i64 408
  %3 = load i64, ptr %icount, align 8
  %cmp.not = icmp eq i64 %3, -1
  br i1 %cmp.not, label %if.end, label %if.then16

if.then16:                                        ; preds = %if.else
  %call19 = call i32 (ptr, i64, ptr, ...) @snprintf(ptr noundef nonnull dereferenceable(1) %icount_buf, i64 noundef 128, ptr noundef nonnull @.str.16, i64 noundef %3) #10
  br label %if.end

if.end:                                           ; preds = %if.then16, %if.else
  %name = getelementptr inbounds nuw i8, ptr %sn, i64 128
  %call24 = call i32 (ptr, ...) @qemu_printf(ptr noundef nonnull @.str.17, ptr noundef nonnull %sn, ptr noundef nonnull %name, ptr noundef %call14, ptr noundef %call2, ptr noundef nonnull %clock_buf, ptr noundef nonnull %icount_buf) #10
  call void @g_free(ptr noundef %call2) #10
  %tobool.not.i.i = icmp eq ptr %call1, null
  br i1 %tobool.not.i.i, label %if.end25, label %if.then.i.i

if.then.i.i:                                      ; preds = %if.end
  call void @g_date_time_unref(ptr noundef nonnull %call1) #10
  br label %if.end25

if.end25:                                         ; preds = %if.then.i.i, %if.end, %if.then
  %sizing.0 = phi ptr [ null, %if.then ], [ %call14, %if.end ], [ %call14, %if.then.i.i ]
  call void @g_free(ptr noundef %sizing.0) #10
  ret void
}